target datalayout = "e-m:e-p270:32:32-p271:32:32-p272:64:64-i64:64-i128:128-f80:128-n8:16:32:64-S128"
target triple = "x86_64-pc-linux-gnu"

%struct.evdns_server_port = type { i32, i32, i8, i8, ptr, ptr, %struct.event, ptr, ptr, ptr, %struct.client_list, i32, i32, %struct.timeval, ptr }
%struct.event = type { %struct.event_callback, %union.anon.0, i32, i16, i16, ptr, %union.anon.2, %struct.timeval }
%struct.event_callback = type { %struct.anon, i16, i8, i8, %union.anon, ptr }
%struct.anon = type { ptr, ptr }
%union.anon = type { ptr }
%union.anon.0 = type { %struct.anon.1 }
%struct.anon.1 = type { ptr, ptr }
%union.anon.2 = type { %struct.anon.3 }
%struct.anon.3 = type { %struct.anon.4, %struct.timeval }
%struct.anon.4 = type { ptr, ptr }
%struct.client_list = type { ptr }
%struct.timeval = type { i64, i64 }

@evthread_lock_debugging_enabled_ = external global i32, align 4
@.str.40 = private unnamed_addr constant [55 x i8] c"Error %s (%d) while writing response to port; dropping\00", align 1
@.str.41 = private unnamed_addr constant [54 x i8] c"Error from libevent when adding event for DNS server.\00", align 1

; Function Attrs: nounwind uwtable
define internal void @server_port_flush(ptr noundef %0) #0 {
  %2 = alloca ptr, align 8
  %3 = alloca ptr, align 8
  %4 = alloca i32, align 4
  %5 = alloca i32, align 4
  %6 = alloca i32, align 4
  store ptr %0, ptr %2, align 8
  call void @llvm.lifetime.start.p0(i64 8, ptr %3) #10
  %7 = load ptr, ptr %2, align 8
  %8 = getelementptr inbounds nuw %struct.evdns_server_port, ptr %7, i32 0, i32 7
  %9 = load ptr, ptr %8, align 8
  store ptr %9, ptr %3, align 8
  br label %10

10:                                               ; preds = %1
  %11 = load ptr, ptr %2, align 8
  %12 = getelementptr inbounds nuw %struct.evdns_server_port, ptr %11, i32 0, i32 14
  %13 = load ptr, ptr %12, align 8
  %14 = icmp ne ptr %13, null
  br i1 %14, label %15, label %22

15:                                               ; preds = %10
  %16 = load i32, ptr @evthread_lock_debugging_enabled_, align 4
  %17 = icmp ne i32 %16, 0
  br i1 %17, label %18, label %22

18:                                               ; preds = %15
  br label %19

19:                                               ; preds = %18
  br label %20

20:                                               ; preds = %19
  br label %21

21:                                               ; preds = %20
  br label %22

22:                                               ; preds = %21, %15, %10
  br label %23

23:                                               ; preds = %22
  br label %24

24:                                               ; preds = %23
  br label %25

25:                                               ; preds = %65, %24
  %26 = load ptr, ptr %3, align 8
  %27 = icmp ne ptr %26, null
  br i1 %27, label %28, label %66

28:                                               ; preds = %25
  call void @llvm.lifetime.start.p0(i64 4, ptr %4) #10
  %29 = load ptr, ptr %2, align 8
  %30 = load ptr, ptr %3, align 8
  %31 = call i32 @server_send_response(ptr noundef %29, ptr noundef %30)
  store i32 %31, ptr %4, align 4
  %32 = load i32, ptr %4, align 4
  %33 = icmp slt i32 %32, 0
  br i1 %33, label %34, label %50

34:                                               ; preds = %28
  call void @llvm.lifetime.start.p0(i64 4, ptr %5) #10
  %35 = call ptr @__errno_location() #11
  %36 = load i32, ptr %35, align 4
  store i32 %36, ptr %5, align 4
  %37 = load i32, ptr %5, align 4
  %38 = icmp eq i32 %37, 4
  br i1 %38, label %42, label %39

39:                                               ; preds = %34
  %40 = load i32, ptr %5, align 4
  %41 = icmp eq i32 %40, 11
  br i1 %41, label %42, label %43

42:                                               ; preds = %39, %34
  store i32 1, ptr %6, align 4
  br label %47

43:                                               ; preds = %39
  %44 = load i32, ptr %5, align 4
  %45 = call ptr @strerror(i32 noundef %44) #10
  %46 = load i32, ptr %5, align 4
  call void (i32, ptr, ...) @evdns_log_(i32 noundef 2, ptr noundef @.str.40, ptr noundef %45, i32 noundef %46)
  store i32 0, ptr %6, align 4
  br label %47

47:                                               ; preds = %43, %42
  call void @llvm.lifetime.end.p0(i64 4, ptr %5) #10
  %48 = load i32, ptr %6, align 4
  switch i32 %48, label %63 [
    i32 0, label %49
  ]

49:                                               ; preds = %47
  br label %50

50:                                               ; preds = %49, %28
  %51 = load ptr, ptr %3, align 8
  %52 = call i32 @server_request_free(ptr noundef %51)
  %53 = icmp ne i32 %52, 0
  br i1 %53, label %54, label %55

54:                                               ; preds = %50
  store i32 1, ptr %6, align 4
  br label %63

55:                                               ; preds = %50
  br label %56

56:                                               ; preds = %55
  br label %57

57:                                               ; preds = %56
  br label %58

58:                                               ; preds = %57
  %59 = load ptr, ptr %2, align 8
  %60 = getelementptr inbounds nuw %struct.evdns_server_port, ptr %59, i32 0, i32 7
  %61 = load ptr, ptr %60, align 8
  store ptr %61, ptr %3, align 8
  br label %62

62:                                               ; preds = %58
  store i32 0, ptr %6, align 4
  br label %63

63:                                               ; preds = %62, %54, %47
  call void @llvm.lifetime.end.p0(i64 4, ptr %4) #10
  %64 = load i32, ptr %6, align 4
  switch i32 %64, label %86 [
    i32 0, label %65
  ]

65:                                               ; preds = %63
  br label %25, !llvm.loop !10

66:                                               ; preds = %25
  %67 = load ptr, ptr %2, align 8
  %68 = getelementptr inbounds nuw %struct.evdns_server_port, ptr %67, i32 0, i32 6
  %69 = call i32 @event_del(ptr noundef %68)
  %70 = load ptr, ptr %2, align 8
  %71 = getelementptr inbounds nuw %struct.evdns_server_port, ptr %70, i32 0, i32 6
  %72 = load ptr, ptr %2, align 8
  %73 = getelementptr inbounds nuw %struct.evdns_server_port, ptr %72, i32 0, i32 8
  %74 = load ptr, ptr %73, align 8
  %75 = load ptr, ptr %2, align 8
  %76 = getelementptr inbounds nuw %struct.evdns_server_port, ptr %75, i32 0, i32 0
  %77 = load i32, ptr %76, align 8
  %78 = load ptr, ptr %2, align 8
  %79 = call i32 @event_assign(ptr noundef %71, ptr noundef %74, i32 noundef %77, i16 noundef signext 18, ptr noundef @server_port_ready_callback, ptr noundef %78)
  %80 = load ptr, ptr %2, align 8
  %81 = getelementptr inbounds nuw %struct.evdns_server_port, ptr %80, i32 0, i32 6
  %82 = call i32 @event_add(ptr noundef %81, ptr noundef null)
  %83 = icmp slt i32 %82, 0
  br i1 %83, label %84, label %85

84:                                               ; preds = %66
  call void (i32, ptr, ...) @evdns_log_(i32 noundef 2, ptr noundef @.str.41)
  br label %85

85:                                               ; preds = %84, %66
  store i32 0, ptr %6, align 4
  br label %86

86:                                               ; preds = %85, %63
  call void @llvm.lifetime.end.p0(i64 8, ptr %3) #10
  %87 = load i32, ptr %6, align 4
  switch i32 %87, label %89 [
    i32 0, label %88
    i32 1, label %88
  ]

88:                                               ; preds = %86, %86
  ret void

89:                                               ; preds = %86
  unreachable
}