; Function Attrs: nounwind uwtable
define internal fastcc void @server_port_flush(ptr noundef %0) unnamed_addr #2 {
  %2 = getelementptr inbounds nuw i8, ptr %0, i64 152
  br label %3

3:                                                ; preds = %12, %1
  %.023 = load ptr, ptr %2, align 8
  %.not = icmp eq ptr %.023, null
  br i1 %.not, label %14, label %4

4:                                                ; preds = %3
  %5 = tail call fastcc i32 @server_send_response(ptr noundef nonnull %0, ptr noundef nonnull %.023)
  %6 = icmp slt i32 %5, 0
  br i1 %6, label %7, label %12

7:                                                ; preds = %4
  %8 = tail call ptr @__errno_location() #22
  %9 = load i32, ptr %8, align 4
  switch i32 %9, label %10 [
    i32 11, label %.thread
    i32 4, label %.thread
  ]

10:                                               ; preds = %7
  %11 = tail call ptr @strerror(i32 noundef %9) #21
  tail call void (i32, ptr, ...) @evdns_log_(i32 noundef 2, ptr noundef nonnull @.str.40, ptr noundef %11, i32 noundef %9)
  br label %12

12:                                               ; preds = %10, %4
  %13 = tail call fastcc i32 @server_request_free(ptr noundef nonnull %.023)
  %.not28 = icmp eq i32 %13, 0
  br i1 %.not28, label %3, label %.thread, !llvm.loop !13

14:                                               ; preds = %3
  %15 = getelementptr inbounds nuw i8, ptr %0, i64 32
  %16 = tail call i32 @event_del(ptr noundef nonnull %15) #21
  %17 = getelementptr inbounds nuw i8, ptr %0, i64 160
  %18 = load ptr, ptr %17, align 8
  %19 = load i32, ptr %0, align 8
  %20 = tail call i32 @event_assign(ptr noundef nonnull %15, ptr noundef %18, i32 noundef %19, i16 noundef signext 18, ptr noundef nonnull @server_port_ready_callback, ptr noundef nonnull %0) #21
  %21 = tail call i32 @event_add(ptr noundef nonnull %15, ptr noundef null) #21
  %22 = icmp slt i32 %21, 0
  br i1 %22, label %23, label %.thread

23:                                               ; preds = %14
  tail call void (i32, ptr, ...) @evdns_log_(i32 noundef 2, ptr noundef nonnull @.str.41)
  br label %.thread

.thread:                                          ; preds = %7, %7, %12, %14, %23
  ret void
}